; Function Attrs: mustprogress uwtable
define noundef ptr @_Z31tsi_create_fake_frame_protectorPm(ptr noundef readonly %0) local_unnamed_addr #3 {
  %2 = tail call noundef ptr @gpr_zalloc(i64 noundef 96)
  %3 = icmp eq ptr %0, null
  br i1 %3, label %6, label %4

4:                                                ; preds = %1
  %5 = load i64, ptr %0, align 8, !tbaa !40
  br label %6

6:                                                ; preds = %1, %4
  %7 = phi i64 [ %5, %4 ], [ 16384, %1 ]
  %8 = getelementptr inbounds nuw i8, ptr %2, i64 88
  store i64 %7, ptr %8, align 8, !tbaa !41
  store ptr @_ZL22frame_protector_vtable, ptr %2, align 8, !tbaa !45
  ret ptr %2
}